; Function Attrs: mustprogress uwtable
define void @_ZN22PreprocessingAtomTypesC2Ev(ptr noundef nonnull writeonly align 8 captures(none) dereferenceable(8) initializes((0, 8)) %0) unnamed_addr #1 align 2 personality ptr @__gxx_personality_v0 {
  %2 = tail call noalias noundef nonnull dereferenceable(80) ptr @_Znwm(i64 noundef 80) #23
  tail call void @llvm.memset.p0.i64(ptr noundef nonnull align 8 dereferenceable(80) %2, i8 0, i64 24, i1 false)
  %3 = getelementptr inbounds nuw i8, ptr %2, i64 24
  %4 = getelementptr inbounds nuw i8, ptr %2, i64 72
  store ptr %4, ptr %3, align 8, !tbaa !33
  %5 = getelementptr inbounds nuw i8, ptr %2, i64 32
  store i64 1, ptr %5, align 8, !tbaa !32
  %6 = getelementptr inbounds nuw i8, ptr %2, i64 40
  %7 = getelementptr inbounds nuw i8, ptr %2, i64 56
  tail call void @llvm.memset.p0.i64(ptr noundef nonnull align 8 dereferenceable(16) %6, i8 0, i64 16, i1 false)
  store float 1.000000e+00, ptr %7, align 8, !tbaa !52
  %8 = getelementptr inbounds nuw i8, ptr %2, i64 64
  tail call void @llvm.memset.p0.i64(ptr noundef nonnull align 8 dereferenceable(16) %8, i8 0, i64 16, i1 false)
  store ptr %2, ptr %0, align 8, !tbaa !4
  ret void
}